; Function Attrs: mustprogress nounwind uwtable
define dso_local void @_ZN4node4quic7Session11Application17StreamStopSendingEPNS0_6StreamENS0_9QuicErrorE(ptr nocapture nonnull readnone align 8 %this, ptr noundef %stream, ptr noundef %error) unnamed_addr #3 align 2 {
entry:
  %agg.tmp = alloca %"class.node::quic::QuicError", align 8
  store ptr getelementptr inbounds ({ [10 x ptr] }, ptr @_ZTVN4node4quic9QuicErrorE, i64 0, i32 0, i64 2), ptr %agg.tmp, align 8
  %reason_.i = getelementptr inbounds i8, ptr %agg.tmp, i64 8
  %reason_2.i = getelementptr inbounds i8, ptr %error, i64 8
  call void @_ZNSt7__cxx1112basic_stringIcSt11char_traitsIcESaIcEEC1ERKS4_(ptr noundef nonnull align 8 dereferenceable(32) %reason_.i, ptr noundef nonnull align 8 dereferenceable(32) %reason_2.i) #18
  %error_.i = getelementptr inbounds i8, ptr %agg.tmp, i64 40
  %error_3.i = getelementptr inbounds i8, ptr %error, i64 40
  call void @llvm.memcpy.p0.p0.i64(ptr noundef nonnull align 8 dereferenceable(48) %error_.i, ptr noundef nonnull align 8 dereferenceable(48) %error_3.i, i64 48, i1 false)
  call void @_ZN4node4quic6Stream18ReceiveStopSendingENS0_9QuicErrorE(ptr noundef nonnull align 8 dereferenceable(256) %stream, ptr noundef nonnull %agg.tmp) #18
  call void @_ZNSt7__cxx1112basic_stringIcSt11char_traitsIcESaIcEED1Ev(ptr noundef nonnull align 8 dereferenceable(32) %reason_.i) #18
  ret void
}